; Function Attrs: mustprogress nofree norecurse nosync nounwind memory(readwrite, inaccessiblemem: none) uwtable
define hidden void @_ZN9SampleICC11Swap64ArrayEPvi(ptr nocapture noundef %pVoid, i32 noundef %num) local_unnamed_addr #4 {
entry:
  %cmp10 = icmp sgt i32 %num, 0
  br i1 %cmp10, label %while.body, label %while.end

while.body:                                       ; preds = %entry, %while.body
  %ptr.012 = phi ptr [ %add.ptr, %while.body ], [ %pVoid, %entry ]
  %num.addr.011 = phi i32 [ %dec, %while.body ], [ %num, %entry ]
  %0 = load <8 x i8>, ptr %ptr.012, align 1
  %1 = shufflevector <8 x i8> %0, <8 x i8> poison, <8 x i32> <i32 7, i32 6, i32 5, i32 4, i32 3, i32 2, i32 1, i32 0>
  store <8 x i8> %1, ptr %ptr.012, align 1
  %add.ptr = getelementptr inbounds i8, ptr %ptr.012, i64 8
  %dec = add nsw i32 %num.addr.011, -1
  %cmp = icmp ugt i32 %num.addr.011, 1
  br i1 %cmp, label %while.body, label %while.end, !llvm.loop !4

while.end:                                        ; preds = %while.body, %entry
  ret void
}